target datalayout = "e-m:e-p270:32:32-p271:32:32-p272:64:64-i64:64-i128:128-f80:128-n8:16:32:64-S128"
target triple = "x86_64-pc-linux-gnu"

%"class.std::function" = type { %"class.std::_Function_base", ptr }
%"class.std::_Function_base" = type { %"union.std::_Any_data", ptr }
%"union.std::_Any_data" = type { %"union.std::_Nocopy_types" }
%"union.std::_Nocopy_types" = type { { i64, i64 } }
%"class.std::vector.108" = type { %"struct.std::_Vector_base.109" }
%"struct.std::_Vector_base.109" = type { %"struct.std::_Vector_base<std::function<dependent_expr_simplifier *(ast_manager &, const params_ref &, dependent_expr_state &)>, std::allocator<std::function<dependent_expr_simplifier *(ast_manager &, const params_ref &, dependent_expr_state &)>>>::_Vector_impl" }
%"struct.std::_Vector_base<std::function<dependent_expr_simplifier *(ast_manager &, const params_ref &, dependent_expr_state &)>, std::allocator<std::function<dependent_expr_simplifier *(ast_manager &, const params_ref &, dependent_expr_state &)>>>::_Vector_impl" = type { %"struct.std::_Vector_base<std::function<dependent_expr_simplifier *(ast_manager &, const params_ref &, dependent_expr_state &)>, std::allocator<std::function<dependent_expr_simplifier *(ast_manager &, const params_ref &, dependent_expr_state &)>>>::_Vector_impl_data" }
%"struct.std::_Vector_base<std::function<dependent_expr_simplifier *(ast_manager &, const params_ref &, dependent_expr_state &)>, std::allocator<std::function<dependent_expr_simplifier *(ast_manager &, const params_ref &, dependent_expr_state &)>>>::_Vector_impl_data" = type { ptr, ptr, ptr }
%class.anon = type { %"class.std::vector.108" }

; Function Attrs: mustprogress nounwind uwtable
define linkonce_odr hidden void @_ZNSt14_Function_baseD2Ev(ptr noundef nonnull align 8 dereferenceable(24) %0) unnamed_addr #6 comdat align 2 personality ptr @__gxx_personality_v0 {
  %2 = alloca ptr, align 8
  store ptr %0, ptr %2, align 8, !tbaa !83
  %3 = load ptr, ptr %2, align 8
  %4 = getelementptr inbounds nuw %"class.std::_Function_base", ptr %3, i32 0, i32 1
  %5 = load ptr, ptr %4, align 8, !tbaa !85
  %6 = icmp ne ptr %5, null
  br i1 %6, label %7, label %14

7:                                                ; preds = %1
  %8 = getelementptr inbounds nuw %"class.std::_Function_base", ptr %3, i32 0, i32 1
  %9 = load ptr, ptr %8, align 8, !tbaa !85
  %10 = getelementptr inbounds nuw %"class.std::_Function_base", ptr %3, i32 0, i32 0
  %11 = getelementptr inbounds nuw %"class.std::_Function_base", ptr %3, i32 0, i32 0
  %12 = invoke noundef zeroext i1 %9(ptr noundef nonnull align 8 dereferenceable(16) %10, ptr noundef nonnull align 8 dereferenceable(16) %11, i32 noundef 3)
          to label %13 unwind label %15

13:                                               ; preds = %7
  br label %14

14:                                               ; preds = %13, %1
  ret void

15:                                               ; preds = %7
  %16 = landingpad { ptr, i32 }
          catch ptr null
  %17 = extractvalue { ptr, i32 } %16, 0
  call void @__clang_call_terminate(ptr %17) #22
  unreachable
}

; Function Attrs: mustprogress nounwind uwtable
define linkonce_odr hidden void @_ZNSt15__new_allocatorISt8functionIFP25dependent_expr_simplifierR11ast_managerRK10params_refR20dependent_expr_stateEEE10deallocateEPSB_m(ptr noundef nonnull align 1 dereferenceable(1) %0, ptr noundef %1, i64 noundef %2) #6 comdat align 2 {
  %4 = alloca ptr, align 8
  %5 = alloca ptr, align 8
  %6 = alloca i64, align 8
  store ptr %0, ptr %4, align 8, !tbaa !199
  store ptr %1, ptr %5, align 8, !tbaa !72
  store i64 %2, ptr %6, align 8, !tbaa !157
  %7 = load ptr, ptr %5, align 8, !tbaa !72
  %8 = load i64, ptr %6, align 8, !tbaa !157
  %9 = mul i64 %8, 32
  call void @_ZdlPvm(ptr noundef %7, i64 noundef %9) #24
  ret void
}

; Function Attrs: inlinehint mustprogress nounwind uwtable
define linkonce_odr hidden void @_ZSt10destroy_atISt8functionIFP25dependent_expr_simplifierR11ast_managerRK10params_refR20dependent_expr_stateEEEvPT_(ptr noundef %0) #10 comdat {
  %2 = alloca ptr, align 8
  store ptr %0, ptr %2, align 8, !tbaa !72
  %3 = load ptr, ptr %2, align 8, !tbaa !72
  call void @_ZNSt14_Function_baseD2Ev(ptr noundef nonnull align 8 dereferenceable(32) %3) #3
  ret void
}

; Function Attrs: alwaysinline mustprogress uwtable
define linkonce_odr hidden void @_ZNSaISt8functionIFP25dependent_expr_simplifierR11ast_managerRK10params_refR20dependent_expr_stateEEE10deallocateEPSA_m(ptr noundef nonnull align 1 dereferenceable(1) %0, ptr noundef %1, i64 noundef %2) #14 comdat align 2 {
  %4 = alloca ptr, align 8
  %5 = alloca ptr, align 8
  %6 = alloca i64, align 8
  store ptr %0, ptr %4, align 8, !tbaa !194
  store ptr %1, ptr %5, align 8, !tbaa !72
  store i64 %2, ptr %6, align 8, !tbaa !157
  %7 = load ptr, ptr %4, align 8
  %8 = load ptr, ptr %5, align 8, !tbaa !72
  %9 = load i64, ptr %6, align 8, !tbaa !157
  call void @_ZNSt15__new_allocatorISt8functionIFP25dependent_expr_simplifierR11ast_managerRK10params_refR20dependent_expr_stateEEE10deallocateEPSB_m(ptr noundef nonnull align 1 dereferenceable(1) %7, ptr noundef %8, i64 noundef %9)
  ret void
}

; Function Attrs: inlinehint mustprogress nounwind uwtable
define linkonce_odr hidden void @_ZSt8_DestroyISt8functionIFP25dependent_expr_simplifierR11ast_managerRK10params_refR20dependent_expr_stateEEEvPT_(ptr noundef %0) #10 comdat {
  %2 = alloca ptr, align 8
  store ptr %0, ptr %2, align 8, !tbaa !72
  %3 = load ptr, ptr %2, align 8, !tbaa !72
  call void @_ZSt10destroy_atISt8functionIFP25dependent_expr_simplifierR11ast_managerRK10params_refR20dependent_expr_stateEEEvPT_(ptr noundef %3)
  ret void
}

; Function Attrs: mustprogress uwtable
define linkonce_odr hidden void @_ZNSt16allocator_traitsISaISt8functionIFP25dependent_expr_simplifierR11ast_managerRK10params_refR20dependent_expr_stateEEEE10deallocateERSC_PSB_m(ptr noundef nonnull align 1 dereferenceable(1) %0, ptr noundef %1, i64 noundef %2) #4 comdat align 2 {
  %4 = alloca ptr, align 8
  %5 = alloca ptr, align 8
  %6 = alloca i64, align 8
  store ptr %0, ptr %4, align 8, !tbaa !194
  store ptr %1, ptr %5, align 8, !tbaa !72
  store i64 %2, ptr %6, align 8, !tbaa !157
  %7 = load ptr, ptr %4, align 8, !tbaa !194
  %8 = load ptr, ptr %5, align 8, !tbaa !72
  %9 = load i64, ptr %6, align 8, !tbaa !157
  call void @_ZNSaISt8functionIFP25dependent_expr_simplifierR11ast_managerRK10params_refR20dependent_expr_stateEEE10deallocateEPSA_m(ptr noundef nonnull align 1 dereferenceable(1) %7, ptr noundef %8, i64 noundef %9)
  ret void
}

; Function Attrs: mustprogress uwtable
define linkonce_odr hidden void @_ZNSt12_Destroy_auxILb0EE9__destroyIPSt8functionIFP25dependent_expr_simplifierR11ast_managerRK10params_refR20dependent_expr_stateEEEEvT_SF_(ptr noundef %0, ptr noundef %1) #4 comdat align 2 {
  %3 = alloca ptr, align 8
  %4 = alloca ptr, align 8
  store ptr %0, ptr %3, align 8, !tbaa !72
  store ptr %1, ptr %4, align 8, !tbaa !72
  br label %5

5:                                                ; preds = %11, %2
  %6 = load ptr, ptr %3, align 8, !tbaa !72
  %7 = load ptr, ptr %4, align 8, !tbaa !72
  %8 = icmp ne ptr %6, %7
  br i1 %8, label %9, label %14

9:                                                ; preds = %5
  %10 = load ptr, ptr %3, align 8, !tbaa !72
  call void @_ZSt8_DestroyISt8functionIFP25dependent_expr_simplifierR11ast_managerRK10params_refR20dependent_expr_stateEEEvPT_(ptr noundef %10)
  br label %11

11:                                               ; preds = %9
  %12 = load ptr, ptr %3, align 8, !tbaa !72
  %13 = getelementptr inbounds nuw %"class.std::function", ptr %12, i32 1
  store ptr %13, ptr %3, align 8, !tbaa !72
  br label %5, !llvm.loop !215

14:                                               ; preds = %5
  ret void
}

; Function Attrs: mustprogress nounwind uwtable
define linkonce_odr hidden void @_ZNSaISt8functionIFP25dependent_expr_simplifierR11ast_managerRK10params_refR20dependent_expr_stateEEED2Ev(ptr noundef nonnull align 1 dereferenceable(1) %0) unnamed_addr #6 comdat align 2 {
  %2 = alloca ptr, align 8
  store ptr %0, ptr %2, align 8, !tbaa !194
  ret void
}

; Function Attrs: mustprogress uwtable
define linkonce_odr hidden void @_ZNSt12_Vector_baseISt8functionIFP25dependent_expr_simplifierR11ast_managerRK10params_refR20dependent_expr_stateEESaISB_EE13_M_deallocateEPSB_m(ptr noundef nonnull align 8 dereferenceable(24) %0, ptr noundef %1, i64 noundef %2) #4 comdat align 2 {
  %4 = alloca ptr, align 8
  %5 = alloca ptr, align 8
  %6 = alloca i64, align 8
  store ptr %0, ptr %4, align 8, !tbaa !190
  store ptr %1, ptr %5, align 8, !tbaa !72
  store i64 %2, ptr %6, align 8, !tbaa !157
  %7 = load ptr, ptr %4, align 8
  %8 = load ptr, ptr %5, align 8, !tbaa !72
  %9 = icmp ne ptr %8, null
  br i1 %9, label %10, label %14

10:                                               ; preds = %3
  %11 = getelementptr inbounds nuw %"struct.std::_Vector_base.109", ptr %7, i32 0, i32 0
  %12 = load ptr, ptr %5, align 8, !tbaa !72
  %13 = load i64, ptr %6, align 8, !tbaa !157
  call void @_ZNSt16allocator_traitsISaISt8functionIFP25dependent_expr_simplifierR11ast_managerRK10params_refR20dependent_expr_stateEEEE10deallocateERSC_PSB_m(ptr noundef nonnull align 1 dereferenceable(1) %11, ptr noundef %12, i64 noundef %13)
  br label %14

14:                                               ; preds = %10, %3
  ret void
}

; Function Attrs: inlinehint mustprogress uwtable
define linkonce_odr hidden void @_ZSt8_DestroyIPSt8functionIFP25dependent_expr_simplifierR11ast_managerRK10params_refR20dependent_expr_stateEEEvT_SD_(ptr noundef %0, ptr noundef %1) #7 comdat {
  %3 = alloca ptr, align 8
  %4 = alloca ptr, align 8
  store ptr %0, ptr %3, align 8, !tbaa !72
  store ptr %1, ptr %4, align 8, !tbaa !72
  %5 = load ptr, ptr %3, align 8, !tbaa !72
  %6 = load ptr, ptr %4, align 8, !tbaa !72
  call void @_ZNSt12_Destroy_auxILb0EE9__destroyIPSt8functionIFP25dependent_expr_simplifierR11ast_managerRK10params_refR20dependent_expr_stateEEEEvT_SF_(ptr noundef %5, ptr noundef %6)
  ret void
}

; Function Attrs: mustprogress nounwind uwtable
define linkonce_odr hidden void @_ZNSt12_Vector_baseISt8functionIFP25dependent_expr_simplifierR11ast_managerRK10params_refR20dependent_expr_stateEESaISB_EED2Ev(ptr noundef nonnull align 8 dereferenceable(24) %0) unnamed_addr #6 comdat align 2 personality ptr @__gxx_personality_v0 {
  %2 = alloca ptr, align 8
  store ptr %0, ptr %2, align 8, !tbaa !190
  %3 = load ptr, ptr %2, align 8
  %4 = getelementptr inbounds nuw %"struct.std::_Vector_base.109", ptr %3, i32 0, i32 0
  %5 = getelementptr inbounds nuw %"struct.std::_Vector_base<std::function<dependent_expr_simplifier *(ast_manager &, const params_ref &, dependent_expr_state &)>, std::allocator<std::function<dependent_expr_simplifier *(ast_manager &, const params_ref &, dependent_expr_state &)>>>::_Vector_impl_data", ptr %4, i32 0, i32 0
  %6 = load ptr, ptr %5, align 8, !tbaa !187
  %7 = getelementptr inbounds nuw %"struct.std::_Vector_base.109", ptr %3, i32 0, i32 0
  %8 = getelementptr inbounds nuw %"struct.std::_Vector_base<std::function<dependent_expr_simplifier *(ast_manager &, const params_ref &, dependent_expr_state &)>, std::allocator<std::function<dependent_expr_simplifier *(ast_manager &, const params_ref &, dependent_expr_state &)>>>::_Vector_impl_data", ptr %7, i32 0, i32 2
  %9 = load ptr, ptr %8, align 8, !tbaa !198
  %10 = getelementptr inbounds nuw %"struct.std::_Vector_base.109", ptr %3, i32 0, i32 0
  %11 = getelementptr inbounds nuw %"struct.std::_Vector_base<std::function<dependent_expr_simplifier *(ast_manager &, const params_ref &, dependent_expr_state &)>, std::allocator<std::function<dependent_expr_simplifier *(ast_manager &, const params_ref &, dependent_expr_state &)>>>::_Vector_impl_data", ptr %10, i32 0, i32 0
  %12 = load ptr, ptr %11, align 8, !tbaa !187
  %13 = ptrtoint ptr %9 to i64
  %14 = ptrtoint ptr %12 to i64
  %15 = sub i64 %13, %14
  %16 = sdiv exact i64 %15, 32
  invoke void @_ZNSt12_Vector_baseISt8functionIFP25dependent_expr_simplifierR11ast_managerRK10params_refR20dependent_expr_stateEESaISB_EE13_M_deallocateEPSB_m(ptr noundef nonnull align 8 dereferenceable(24) %3, ptr noundef %6, i64 noundef %16)
          to label %17 unwind label %19

17:                                               ; preds = %1
  %18 = getelementptr inbounds nuw %"struct.std::_Vector_base.109", ptr %3, i32 0, i32 0
  call void @_ZNSaISt8functionIFP25dependent_expr_simplifierR11ast_managerRK10params_refR20dependent_expr_stateEEED2Ev(ptr noundef nonnull align 8 dereferenceable(24) %18) #3
  ret void

19:                                               ; preds = %1
  %20 = landingpad { ptr, i32 }
          catch ptr null
  %21 = extractvalue { ptr, i32 } %20, 0
  call void @__clang_call_terminate(ptr %21) #22
  unreachable
}

; Function Attrs: inlinehint mustprogress uwtable
define linkonce_odr hidden void @_ZSt8_DestroyIPSt8functionIFP25dependent_expr_simplifierR11ast_managerRK10params_refR20dependent_expr_stateEESB_EvT_SD_RSaIT0_E(ptr noundef %0, ptr noundef %1, ptr noundef nonnull align 1 dereferenceable(1) %2) #7 comdat {
  %4 = alloca ptr, align 8
  %5 = alloca ptr, align 8
  %6 = alloca ptr, align 8
  store ptr %0, ptr %4, align 8, !tbaa !72
  store ptr %1, ptr %5, align 8, !tbaa !72
  store ptr %2, ptr %6, align 8, !tbaa !194
  %7 = load ptr, ptr %4, align 8, !tbaa !72
  %8 = load ptr, ptr %5, align 8, !tbaa !72
  call void @_ZSt8_DestroyIPSt8functionIFP25dependent_expr_simplifierR11ast_managerRK10params_refR20dependent_expr_stateEEEvT_SD_(ptr noundef %7, ptr noundef %8)
  ret void
}

; Function Attrs: mustprogress nounwind uwtable
define linkonce_odr hidden noundef nonnull align 1 dereferenceable(1) ptr @_ZNSt12_Vector_baseISt8functionIFP25dependent_expr_simplifierR11ast_managerRK10params_refR20dependent_expr_stateEESaISB_EE19_M_get_Tp_allocatorEv(ptr noundef nonnull align 8 dereferenceable(24) %0) #6 comdat align 2 {
  %2 = alloca ptr, align 8
  store ptr %0, ptr %2, align 8, !tbaa !190
  %3 = load ptr, ptr %2, align 8
  %4 = getelementptr inbounds nuw %"struct.std::_Vector_base.109", ptr %3, i32 0, i32 0
  ret ptr %4
}

; Function Attrs: mustprogress nounwind uwtable
define linkonce_odr hidden void @_ZNSt6vectorISt8functionIFP25dependent_expr_simplifierR11ast_managerRK10params_refR20dependent_expr_stateEESaISB_EED2Ev(ptr noundef nonnull align 8 dereferenceable(24) %0) unnamed_addr #6 comdat align 2 personality ptr @__gxx_personality_v0 {
  %2 = alloca ptr, align 8
  store ptr %0, ptr %2, align 8, !tbaa !185
  %3 = load ptr, ptr %2, align 8
  %4 = getelementptr inbounds nuw %"struct.std::_Vector_base.109", ptr %3, i32 0, i32 0
  %5 = getelementptr inbounds nuw %"struct.std::_Vector_base<std::function<dependent_expr_simplifier *(ast_manager &, const params_ref &, dependent_expr_state &)>, std::allocator<std::function<dependent_expr_simplifier *(ast_manager &, const params_ref &, dependent_expr_state &)>>>::_Vector_impl_data", ptr %4, i32 0, i32 0
  %6 = load ptr, ptr %5, align 8, !tbaa !187
  %7 = getelementptr inbounds nuw %"struct.std::_Vector_base.109", ptr %3, i32 0, i32 0
  %8 = getelementptr inbounds nuw %"struct.std::_Vector_base<std::function<dependent_expr_simplifier *(ast_manager &, const params_ref &, dependent_expr_state &)>, std::allocator<std::function<dependent_expr_simplifier *(ast_manager &, const params_ref &, dependent_expr_state &)>>>::_Vector_impl_data", ptr %7, i32 0, i32 1
  %9 = load ptr, ptr %8, align 8, !tbaa !189
  %10 = call noundef nonnull align 1 dereferenceable(1) ptr @_ZNSt12_Vector_baseISt8functionIFP25dependent_expr_simplifierR11ast_managerRK10params_refR20dependent_expr_stateEESaISB_EE19_M_get_Tp_allocatorEv(ptr noundef nonnull align 8 dereferenceable(24) %3) #3
  invoke void @_ZSt8_DestroyIPSt8functionIFP25dependent_expr_simplifierR11ast_managerRK10params_refR20dependent_expr_stateEESB_EvT_SD_RSaIT0_E(ptr noundef %6, ptr noundef %9, ptr noundef nonnull align 1 dereferenceable(1) %10)
          to label %11 unwind label %12

11:                                               ; preds = %1
  call void @_ZNSt12_Vector_baseISt8functionIFP25dependent_expr_simplifierR11ast_managerRK10params_refR20dependent_expr_stateEESaISB_EED2Ev(ptr noundef nonnull align 8 dereferenceable(24) %3) #3
  ret void

12:                                               ; preds = %1
  %13 = landingpad { ptr, i32 }
          catch ptr null
  %14 = extractvalue { ptr, i32 } %13, 0
  call void @__clang_call_terminate(ptr %14) #22
  unreachable
}

; Function Attrs: inlinehint mustprogress nounwind uwtable
define internal void @"_ZZL11mk_and_thenR11cmd_contextP5sexprEN3$_0D2Ev"(ptr noundef nonnull align 8 dereferenceable(24) %0) unnamed_addr #10 align 2 {
  %2 = alloca ptr, align 8
  store ptr %0, ptr %2, align 8, !tbaa !172
  %3 = load ptr, ptr %2, align 8
  %4 = getelementptr inbounds nuw %class.anon, ptr %3, i32 0, i32 0
  call void @_ZNSt6vectorISt8functionIFP25dependent_expr_simplifierR11ast_managerRK10params_refR20dependent_expr_stateEESaISB_EED2Ev(ptr noundef nonnull align 8 dereferenceable(24) %4) #3
  ret void
}