; Function Attrs: inlinehint mustprogress nounwind uwtable
define internal fastcc void @"_ZZL11mk_and_thenR11cmd_contextP5sexprEN3$_0D2Ev"(ptr noundef nonnull readonly align 8 captures(none) dereferenceable(24) %0) unnamed_addr #10 align 2 personality ptr @__gxx_personality_v0 {
  %2 = load ptr, ptr %0, align 8, !tbaa !41
  %3 = getelementptr inbounds nuw i8, ptr %0, i64 8
  %4 = load ptr, ptr %3, align 8, !tbaa !38
  %.not4.i.i.i.i = icmp eq ptr %2, %4
  br i1 %.not4.i.i.i.i, label %_ZSt8_DestroyIPSt8functionIFP25dependent_expr_simplifierR11ast_managerRK10params_refR20dependent_expr_stateEESB_EvT_SD_RSaIT0_E.exit.i, label %.lr.ph.i.i.i.i

.lr.ph.i.i.i.i:                                   ; preds = %1, %_ZSt8_DestroyISt8functionIFP25dependent_expr_simplifierR11ast_managerRK10params_refR20dependent_expr_stateEEEvPT_.exit.i.i.i.i
  %.05.i.i.i.i = phi ptr [ %12, %_ZSt8_DestroyISt8functionIFP25dependent_expr_simplifierR11ast_managerRK10params_refR20dependent_expr_stateEEEvPT_.exit.i.i.i.i ], [ %2, %1 ]
  %5 = getelementptr inbounds nuw i8, ptr %.05.i.i.i.i, i64 16
  %6 = load ptr, ptr %5, align 8, !tbaa !12
  %.not.i.i.i.i.i.i.i = icmp eq ptr %6, null
  br i1 %.not.i.i.i.i.i.i.i, label %_ZSt8_DestroyISt8functionIFP25dependent_expr_simplifierR11ast_managerRK10params_refR20dependent_expr_stateEEEvPT_.exit.i.i.i.i, label %7

7:                                                ; preds = %.lr.ph.i.i.i.i
  %8 = invoke noundef zeroext i1 %6(ptr noundef nonnull align 8 dereferenceable(32) %.05.i.i.i.i, ptr noundef nonnull align 8 dereferenceable(32) %.05.i.i.i.i, i32 noundef 3)
          to label %_ZSt8_DestroyISt8functionIFP25dependent_expr_simplifierR11ast_managerRK10params_refR20dependent_expr_stateEEEvPT_.exit.i.i.i.i unwind label %9

9:                                                ; preds = %7
  %10 = landingpad { ptr, i32 }
          catch ptr null
  %11 = extractvalue { ptr, i32 } %10, 0
  tail call void @__clang_call_terminate(ptr %11) #25
  unreachable

_ZSt8_DestroyISt8functionIFP25dependent_expr_simplifierR11ast_managerRK10params_refR20dependent_expr_stateEEEvPT_.exit.i.i.i.i: ; preds = %7, %.lr.ph.i.i.i.i
  %12 = getelementptr inbounds nuw i8, ptr %.05.i.i.i.i, i64 32
  %.not.i.i.i.i = icmp eq ptr %12, %4
  br i1 %.not.i.i.i.i, label %_ZSt8_DestroyIPSt8functionIFP25dependent_expr_simplifierR11ast_managerRK10params_refR20dependent_expr_stateEESB_EvT_SD_RSaIT0_E.exitthread-pre-split.i, label %.lr.ph.i.i.i.i, !llvm.loop !48

_ZSt8_DestroyIPSt8functionIFP25dependent_expr_simplifierR11ast_managerRK10params_refR20dependent_expr_stateEESB_EvT_SD_RSaIT0_E.exitthread-pre-split.i: ; preds = %_ZSt8_DestroyISt8functionIFP25dependent_expr_simplifierR11ast_managerRK10params_refR20dependent_expr_stateEEEvPT_.exit.i.i.i.i
  %.pr.i = load ptr, ptr %0, align 8, !tbaa !41
  br label %_ZSt8_DestroyIPSt8functionIFP25dependent_expr_simplifierR11ast_managerRK10params_refR20dependent_expr_stateEESB_EvT_SD_RSaIT0_E.exit.i

_ZSt8_DestroyIPSt8functionIFP25dependent_expr_simplifierR11ast_managerRK10params_refR20dependent_expr_stateEESB_EvT_SD_RSaIT0_E.exit.i: ; preds = %_ZSt8_DestroyIPSt8functionIFP25dependent_expr_simplifierR11ast_managerRK10params_refR20dependent_expr_stateEESB_EvT_SD_RSaIT0_E.exitthread-pre-split.i, %1
  %13 = phi ptr [ %.pr.i, %_ZSt8_DestroyIPSt8functionIFP25dependent_expr_simplifierR11ast_managerRK10params_refR20dependent_expr_stateEESB_EvT_SD_RSaIT0_E.exitthread-pre-split.i ], [ %2, %1 ]
  %.not.i.i.i = icmp eq ptr %13, null
  br i1 %.not.i.i.i, label %_ZNSt6vectorISt8functionIFP25dependent_expr_simplifierR11ast_managerRK10params_refR20dependent_expr_stateEESaISB_EED2Ev.exit, label %14

14:                                               ; preds = %_ZSt8_DestroyIPSt8functionIFP25dependent_expr_simplifierR11ast_managerRK10params_refR20dependent_expr_stateEESB_EvT_SD_RSaIT0_E.exit.i
  %15 = getelementptr inbounds nuw i8, ptr %0, i64 16
  %16 = load ptr, ptr %15, align 8, !tbaa !43
  %17 = ptrtoint ptr %16 to i64
  %18 = ptrtoint ptr %13 to i64
  %19 = sub i64 %17, %18
  tail call void @_ZdlPvm(ptr noundef nonnull %13, i64 noundef %19) #27
  br label %_ZNSt6vectorISt8functionIFP25dependent_expr_simplifierR11ast_managerRK10params_refR20dependent_expr_stateEESaISB_EED2Ev.exit

_ZNSt6vectorISt8functionIFP25dependent_expr_simplifierR11ast_managerRK10params_refR20dependent_expr_stateEESaISB_EED2Ev.exit: ; preds = %_ZSt8_DestroyIPSt8functionIFP25dependent_expr_simplifierR11ast_managerRK10params_refR20dependent_expr_stateEESB_EvT_SD_RSaIT0_E.exit.i, %14
  ret void
}